target datalayout = "e-m:e-p270:32:32-p271:32:32-p272:64:64-i64:64-i128:128-f80:128-n8:16:32:64-S128"
target triple = "x86_64-pc-linux-gnu"

%"class.std::__cxx11::basic_string" = type { %"struct.std::__cxx11::basic_string<char>::_Alloc_hider", i64, %union.anon }
%"struct.std::__cxx11::basic_string<char>::_Alloc_hider" = type { ptr }
%union.anon = type { i64, [8 x i8] }
%"class.std::allocator" = type { i8 }

@.str.48 = private unnamed_addr constant [1 x i8] zeroinitializer, align 1
@.str.71 = private unnamed_addr constant [9 x i8] c"latitude\00", align 1

; Function Attrs: mustprogress uwtable
define internal void @_ZL38get_geog_crs_proj_string_from_proj_crsB5cxx11P8PJconstsRdRb(ptr dead_on_unwind noalias writable sret(%"class.std::__cxx11::basic_string") align 8 %0, ptr noundef %1, ptr noundef nonnull align 8 dereferenceable(8) %2, ptr noundef nonnull align 1 dereferenceable(1) %3) #11 personality ptr @__gxx_personality_v0 {
  %5 = alloca ptr, align 8
  %6 = alloca ptr, align 8
  %7 = alloca ptr, align 8
  %8 = alloca ptr, align 8
  %9 = alloca i32, align 4
  %10 = alloca ptr, align 8
  %11 = alloca i32, align 4
  %12 = alloca ptr, align 8
  %13 = alloca ptr, align 8
  %14 = alloca %"class.std::__cxx11::basic_string", align 8
  %15 = alloca %"class.std::allocator", align 1
  %16 = alloca ptr, align 8
  %17 = alloca i32, align 4
  %18 = alloca ptr, align 8
  %19 = alloca i1, align 1
  %20 = alloca %"class.std::allocator", align 1
  store ptr %0, ptr %5, align 8
  store ptr %1, ptr %6, align 8
  store ptr %2, ptr %7, align 8
  store ptr %3, ptr %8, align 8
  %21 = load ptr, ptr %6, align 8
  %22 = call i32 @proj_get_type(ptr noundef %21)
  store i32 %22, ptr %9, align 4
  %23 = load i32, ptr %9, align 4
  %24 = icmp ne i32 %23, 15
  br i1 %24, label %25, label %26

25:                                               ; preds = %4
  call void @_ZNSt7__cxx1112basic_stringIcSt11char_traitsIcESaIcEEC1Ev(ptr noundef nonnull align 8 dereferenceable(32) %0) #3
  br label %81

26:                                               ; preds = %4
  %27 = load ptr, ptr %6, align 8
  %28 = call ptr @proj_get_source_crs(ptr noundef null, ptr noundef %27)
  store ptr %28, ptr %10, align 8
  %29 = load ptr, ptr %10, align 8
  %30 = call i32 @proj_get_type(ptr noundef %29)
  store i32 %30, ptr %11, align 4
  %31 = load i32, ptr %11, align 4
  %32 = icmp ne i32 %31, 12
  br i1 %32, label %33, label %39

33:                                               ; preds = %26
  %34 = load i32, ptr %11, align 4
  %35 = icmp ne i32 %34, 13
  br i1 %35, label %36, label %39

36:                                               ; preds = %33
  %37 = load ptr, ptr %10, align 8
  %38 = call ptr @proj_destroy(ptr noundef %37)
  call void @_ZNSt7__cxx1112basic_stringIcSt11char_traitsIcESaIcEEC1Ev(ptr noundef nonnull align 8 dereferenceable(32) %0) #3
  br label %81

39:                                               ; preds = %33, %26
  %40 = load ptr, ptr %10, align 8
  %41 = call ptr @proj_crs_get_coordinate_system(ptr noundef null, ptr noundef %40)
  store ptr %41, ptr %12, align 8
  store ptr @.str.48, ptr %13, align 8
  %42 = load ptr, ptr %12, align 8
  %43 = load ptr, ptr %7, align 8
  %44 = call i32 @proj_cs_get_axis_info(ptr noundef null, ptr noundef %42, i32 noundef 0, ptr noundef %13, ptr noundef null, ptr noundef null, ptr noundef %43, ptr noundef null, ptr noundef null, ptr noundef null)
  %45 = load ptr, ptr %13, align 8
  call void @_ZNSaIcEC1Ev(ptr noundef nonnull align 1 dereferenceable(1) %15) #3
  invoke void @_ZNSt7__cxx1112basic_stringIcSt11char_traitsIcESaIcEEC1EPKcRKS3_(ptr noundef nonnull align 8 dereferenceable(32) %14, ptr noundef %45, ptr noundef nonnull align 1 dereferenceable(1) %15)
          to label %46 unwind label %67

46:                                               ; preds = %39
  %47 = call noundef i64 @_ZN5osgeo4proj8internal7ci_findERKNSt7__cxx1112basic_stringIcSt11char_traitsIcESaIcEEEPKc(ptr noundef nonnull align 8 dereferenceable(32) %14, ptr noundef @.str.71) #3
  %48 = icmp ne i64 %47, -1
  %49 = load ptr, ptr %8, align 8
  %50 = zext i1 %48 to i8
  store i8 %50, ptr %49, align 1
  call void @_ZNSt7__cxx1112basic_stringIcSt11char_traitsIcESaIcEED1Ev(ptr noundef nonnull align 8 dereferenceable(32) %14) #3
  call void @_ZNSaIcED1Ev(ptr noundef nonnull align 1 dereferenceable(1) %15) #3
  %51 = load ptr, ptr %12, align 8
  %52 = call ptr @proj_destroy(ptr noundef %51)
  %53 = load ptr, ptr %10, align 8
  %54 = call ptr @proj_as_proj_string(ptr noundef null, ptr noundef %53, i32 noundef 0, ptr noundef null)
  store ptr %54, ptr %18, align 8
  store i1 false, ptr %19, align 1
  %55 = load ptr, ptr %18, align 8
  %56 = icmp ne ptr %55, null
  br i1 %56, label %57, label %59

57:                                               ; preds = %46
  %58 = load ptr, ptr %18, align 8
  br label %60

59:                                               ; preds = %46
  br label %60

60:                                               ; preds = %59, %57
  %61 = phi ptr [ %58, %57 ], [ @.str.48, %59 ]
  call void @_ZNSaIcEC1Ev(ptr noundef nonnull align 1 dereferenceable(1) %20) #3
  invoke void @_ZNSt7__cxx1112basic_stringIcSt11char_traitsIcESaIcEEC1EPKcRKS3_(ptr noundef nonnull align 8 dereferenceable(32) %0, ptr noundef %61, ptr noundef nonnull align 1 dereferenceable(1) %20)
          to label %62 unwind label %71

62:                                               ; preds = %60
  call void @_ZNSaIcED1Ev(ptr noundef nonnull align 1 dereferenceable(1) %20) #3
  %63 = load ptr, ptr %10, align 8
  %64 = invoke ptr @proj_destroy(ptr noundef %63)
          to label %65 unwind label %75

65:                                               ; preds = %62
  store i1 true, ptr %19, align 1
  %66 = load i1, ptr %19, align 1
  br i1 %66, label %80, label %79

67:                                               ; preds = %39
  %68 = landingpad { ptr, i32 }
          cleanup
  %69 = extractvalue { ptr, i32 } %68, 0
  store ptr %69, ptr %16, align 8
  %70 = extractvalue { ptr, i32 } %68, 1
  store i32 %70, ptr %17, align 4
  call void @_ZNSaIcED1Ev(ptr noundef nonnull align 1 dereferenceable(1) %15) #3
  br label %82

71:                                               ; preds = %60
  %72 = landingpad { ptr, i32 }
          cleanup
  %73 = extractvalue { ptr, i32 } %72, 0
  store ptr %73, ptr %16, align 8
  %74 = extractvalue { ptr, i32 } %72, 1
  store i32 %74, ptr %17, align 4
  call void @_ZNSaIcED1Ev(ptr noundef nonnull align 1 dereferenceable(1) %20) #3
  br label %82

75:                                               ; preds = %62
  %76 = landingpad { ptr, i32 }
          cleanup
  %77 = extractvalue { ptr, i32 } %76, 0
  store ptr %77, ptr %16, align 8
  %78 = extractvalue { ptr, i32 } %76, 1
  store i32 %78, ptr %17, align 4
  call void @_ZNSt7__cxx1112basic_stringIcSt11char_traitsIcESaIcEED1Ev(ptr noundef nonnull align 8 dereferenceable(32) %0) #3
  br label %82

79:                                               ; preds = %65
  call void @_ZNSt7__cxx1112basic_stringIcSt11char_traitsIcESaIcEED1Ev(ptr noundef nonnull align 8 dereferenceable(32) %0) #3
  br label %80

80:                                               ; preds = %79, %65
  br label %81

81:                                               ; preds = %80, %36, %25
  ret void

82:                                               ; preds = %75, %71, %67
  %83 = load ptr, ptr %16, align 8
  %84 = load i32, ptr %17, align 4
  %85 = insertvalue { ptr, i32 } poison, ptr %83, 0
  %86 = insertvalue { ptr, i32 } %85, i32 %84, 1
  resume { ptr, i32 } %86
}