; Function Attrs: mustprogress norecurse uwtable
define internal fastcc void @_ZL38get_geog_crs_proj_string_from_proj_crsB5cxx11P8PJconstsRdRb(ptr dead_on_unwind noalias writable align 8 %0, ptr noundef %1, ptr noundef nonnull align 8 dereferenceable(8) %2, ptr nocapture noundef nonnull writeonly align 1 dereferenceable(1) %3) unnamed_addr #14 personality ptr @__gxx_personality_v0 {
  %5 = alloca ptr, align 8
  %6 = alloca %"class.std::__cxx11::basic_string", align 8
  %7 = alloca %"class.std::allocator", align 1
  %8 = alloca %"class.std::allocator", align 1
  %9 = tail call i32 @proj_get_type(ptr noundef %1)
  %.not = icmp eq i32 %9, 15
  br i1 %.not, label %10, label %.sink.split

10:                                               ; preds = %4
  %11 = tail call ptr @proj_get_source_crs(ptr noundef null, ptr noundef %1)
  %12 = tail call i32 @proj_get_type(ptr noundef %11)
  %13 = add i32 %12, -14
  %or.cond = icmp ult i32 %13, -2
  br i1 %or.cond, label %14, label %16

14:                                               ; preds = %10
  %15 = tail call ptr @proj_destroy(ptr noundef %11)
  br label %.sink.split

16:                                               ; preds = %10
  %17 = tail call ptr @proj_crs_get_coordinate_system(ptr noundef null, ptr noundef %11)
  store ptr @.str.48, ptr %5, align 8
  %18 = call i32 @proj_cs_get_axis_info(ptr noundef null, ptr noundef %17, i32 noundef 0, ptr noundef nonnull %5, ptr noundef null, ptr noundef null, ptr noundef nonnull %2, ptr noundef null, ptr noundef null, ptr noundef null)
  %19 = load ptr, ptr %5, align 8
  call void @_ZNSaIcEC1Ev(ptr noundef nonnull align 1 dereferenceable(1) %7) #25
  invoke void @_ZNSt7__cxx1112basic_stringIcSt11char_traitsIcESaIcEEC1EPKcRKS3_(ptr noundef nonnull align 8 dereferenceable(32) %6, ptr noundef %19, ptr noundef nonnull align 1 dereferenceable(1) %7)
          to label %20 unwind label %29

20:                                               ; preds = %16
  %21 = call noundef i64 @_ZN5osgeo4proj8internal7ci_findERKNSt7__cxx1112basic_stringIcSt11char_traitsIcESaIcEEEPKc(ptr noundef nonnull align 8 dereferenceable(32) %6, ptr noundef nonnull @.str.71) #25
  %22 = icmp ne i64 %21, -1
  %23 = zext i1 %22 to i8
  store i8 %23, ptr %3, align 1
  call void @_ZNSt7__cxx1112basic_stringIcSt11char_traitsIcESaIcEED1Ev(ptr noundef nonnull align 8 dereferenceable(32) %6) #25
  call void @_ZNSaIcED1Ev(ptr noundef nonnull align 1 dereferenceable(1) %7) #25
  %24 = call ptr @proj_destroy(ptr noundef %17)
  %25 = call ptr @proj_as_proj_string(ptr noundef null, ptr noundef %11, i32 noundef 0, ptr noundef null)
  %.not20 = icmp eq ptr %25, null
  %26 = select i1 %.not20, ptr @.str.48, ptr %25
  call void @_ZNSaIcEC1Ev(ptr noundef nonnull align 1 dereferenceable(1) %8) #25
  invoke void @_ZNSt7__cxx1112basic_stringIcSt11char_traitsIcESaIcEEC1EPKcRKS3_(ptr noundef nonnull align 8 dereferenceable(32) %0, ptr noundef nonnull %26, ptr noundef nonnull align 1 dereferenceable(1) %8)
          to label %27 unwind label %31

27:                                               ; preds = %20
  call void @_ZNSaIcED1Ev(ptr noundef nonnull align 1 dereferenceable(1) %8) #25
  %28 = invoke ptr @proj_destroy(ptr noundef %11)
          to label %35 unwind label %33

29:                                               ; preds = %16
  %30 = landingpad { ptr, i32 }
          cleanup
  call void @_ZNSaIcED1Ev(ptr noundef nonnull align 1 dereferenceable(1) %7) #25
  br label %36

31:                                               ; preds = %20
  %32 = landingpad { ptr, i32 }
          cleanup
  call void @_ZNSaIcED1Ev(ptr noundef nonnull align 1 dereferenceable(1) %8) #25
  br label %36

33:                                               ; preds = %27
  %34 = landingpad { ptr, i32 }
          cleanup
  call void @_ZNSt7__cxx1112basic_stringIcSt11char_traitsIcESaIcEED1Ev(ptr noundef nonnull align 8 dereferenceable(32) %0) #25
  br label %36

.sink.split:                                      ; preds = %4, %14
  tail call void @_ZNSt7__cxx1112basic_stringIcSt11char_traitsIcESaIcEEC1Ev(ptr noundef nonnull align 8 dereferenceable(32) %0) #25
  br label %35

35:                                               ; preds = %.sink.split, %27
  ret void

36:                                               ; preds = %33, %31, %29
  %.pn = phi { ptr, i32 } [ %34, %33 ], [ %32, %31 ], [ %30, %29 ]
  resume { ptr, i32 } %.pn
}